; ModuleID = '38/867.c'
source_filename = "38/867.c"
target datalayout = "e-m:e-p270:32:32-p271:32:32-p272:64:64-i64:64-f80:128-n8:16:32:64-S128"
target triple = "x86_64-pc-linux-gnu"

@.str = private unnamed_addr constant [3 x i8] c"%d\00", align 1
@.str.1 = private unnamed_addr constant [4 x i8] c"%lf\00", align 1
@.str.2 = private unnamed_addr constant [7 x i8] c"%.5lf\0A\00", align 1

; Function Attrs: noinline nounwind uwtable
define dso_local i32 @main() #0 {
  %1 = alloca i32, align 4
  %2 = alloca i32, align 4
  %3 = alloca i32, align 4
  %4 = alloca i32, align 4
  %5 = alloca [100 x i32], align 16
  %6 = alloca [100 x [100 x double]], align 16
  %7 = alloca [100 x double], align 16
  %8 = alloca [100 x double], align 16
  %9 = alloca [100 x double], align 16
  %10 = alloca [100 x double], align 16
  %11 = alloca [100 x double], align 16
  store i32 0, i32* %1, align 4
  %12 = call i32 (i8*, ...) @__isoc99_scanf(i8* getelementptr inbounds ([3 x i8], [3 x i8]* @.str, i64 0, i64 0), i32* %4)
  store i32 0, i32* %2, align 4
  br label %13

13:                                               ; preds = %69, %0
  %14 = load i32, i32* %2, align 4
  %15 = load i32, i32* %4, align 4
  %16 = icmp slt i32 %14, %15
  br i1 %16, label %17, label %72

17:                                               ; preds = %13
  %18 = load i32, i32* %2, align 4
  %19 = sext i32 %18 to i64
  %20 = getelementptr inbounds [100 x i32], [100 x i32]* %5, i64 0, i64 %19
  %21 = call i32 (i8*, ...) @__isoc99_scanf(i8* getelementptr inbounds ([3 x i8], [3 x i8]* @.str, i64 0, i64 0), i32* %20)
  %22 = load i32, i32* %2, align 4
  %23 = sext i32 %22 to i64
  %24 = getelementptr inbounds [100 x double], [100 x double]* %7, i64 0, i64 %23
  store double 0.000000e+00, double* %24, align 8
  store i32 0, i32* %3, align 4
  br label %25

25:                                               ; preds = %52, %17
  %26 = load i32, i32* %3, align 4
  %27 = load i32, i32* %2, align 4
  %28 = sext i32 %27 to i64
  %29 = getelementptr inbounds [100 x i32], [100 x i32]* %5, i64 0, i64 %28
  %30 = load i32, i32* %29, align 4
  %31 = icmp slt i32 %26, %30
  br i1 %31, label %32, label %55

32:                                               ; preds = %25
  %33 = load i32, i32* %2, align 4
  %34 = sext i32 %33 to i64
  %35 = getelementptr inbounds [100 x [100 x double]], [100 x [100 x double]]* %6, i64 0, i64 %34
  %36 = load i32, i32* %3, align 4
  %37 = sext i32 %36 to i64
  %38 = getelementptr inbounds [100 x double], [100 x double]* %35, i64 0, i64 %37
  %39 = call i32 (i8*, ...) @__isoc99_scanf(i8* getelementptr inbounds ([4 x i8], [4 x i8]* @.str.1, i64 0, i64 0), double* %38)
  %40 = load i32, i32* %2, align 4
  %41 = sext i32 %40 to i64
  %42 = getelementptr inbounds [100 x [100 x double]], [100 x [100 x double]]* %6, i64 0, i64 %41
  %43 = load i32, i32* %3, align 4
  %44 = sext i32 %43 to i64
  %45 = getelementptr inbounds [100 x double], [100 x double]* %42, i64 0, i64 %44
  %46 = load double, double* %45, align 8
  %47 = load i32, i32* %2, align 4
  %48 = sext i32 %47 to i64
  %49 = getelementptr inbounds [100 x double], [100 x double]* %7, i64 0, i64 %48
  %50 = load double, double* %49, align 8
  %51 = fadd double %50, %46
  store double %51, double* %49, align 8
  br label %52

52:                                               ; preds = %32
  %53 = load i32, i32* %3, align 4
  %54 = add nsw i32 %53, 1
  store i32 %54, i32* %3, align 4
  br label %25

55:                                               ; preds = %25
  %56 = load i32, i32* %2, align 4
  %57 = sext i32 %56 to i64
  %58 = getelementptr inbounds [100 x double], [100 x double]* %7, i64 0, i64 %57
  %59 = load double, double* %58, align 8
  %60 = load i32, i32* %2, align 4
  %61 = sext i32 %60 to i64
  %62 = getelementptr inbounds [100 x i32], [100 x i32]* %5, i64 0, i64 %61
  %63 = load i32, i32* %62, align 4
  %64 = sitofp i32 %63 to double
  %65 = fdiv double %59, %64
  %66 = load i32, i32* %2, align 4
  %67 = sext i32 %66 to i64
  %68 = getelementptr inbounds [100 x double], [100 x double]* %8, i64 0, i64 %67
  store double %65, double* %68, align 8
  br label %69

69:                                               ; preds = %55
  %70 = load i32, i32* %2, align 4
  %71 = add nsw i32 %70, 1
  store i32 %71, i32* %2, align 4
  br label %13

72:                                               ; preds = %13
  store i32 0, i32* %2, align 4
  br label %73

73:                                               ; preds = %144, %72
  %74 = load i32, i32* %2, align 4
  %75 = load i32, i32* %4, align 4
  %76 = icmp slt i32 %74, %75
  br i1 %76, label %77, label %147

77:                                               ; preds = %73
  %78 = load i32, i32* %2, align 4
  %79 = sext i32 %78 to i64
  %80 = getelementptr inbounds [100 x double], [100 x double]* %9, i64 0, i64 %79
  store double 0.000000e+00, double* %80, align 8
  store i32 0, i32* %3, align 4
  br label %81

81:                                               ; preds = %119, %77
  %82 = load i32, i32* %3, align 4
  %83 = load i32, i32* %2, align 4
  %84 = sext i32 %83 to i64
  %85 = getelementptr inbounds [100 x i32], [100 x i32]* %5, i64 0, i64 %84
  %86 = load i32, i32* %85, align 4
  %87 = icmp slt i32 %82, %86
  br i1 %87, label %88, label %122

88:                                               ; preds = %81
  %89 = load i32, i32* %2, align 4
  %90 = sext i32 %89 to i64
  %91 = getelementptr inbounds [100 x [100 x double]], [100 x [100 x double]]* %6, i64 0, i64 %90
  %92 = load i32, i32* %3, align 4
  %93 = sext i32 %92 to i64
  %94 = getelementptr inbounds [100 x double], [100 x double]* %91, i64 0, i64 %93
  %95 = load double, double* %94, align 8
  %96 = load i32, i32* %2, align 4
  %97 = sext i32 %96 to i64
  %98 = getelementptr inbounds [100 x double], [100 x double]* %8, i64 0, i64 %97
  %99 = load double, double* %98, align 8
  %100 = fsub double %95, %99
  %101 = load i32, i32* %2, align 4
  %102 = sext i32 %101 to i64
  %103 = getelementptr inbounds [100 x [100 x double]], [100 x [100 x double]]* %6, i64 0, i64 %102
  %104 = load i32, i32* %3, align 4
  %105 = sext i32 %104 to i64
  %106 = getelementptr inbounds [100 x double], [100 x double]* %103, i64 0, i64 %105
  %107 = load double, double* %106, align 8
  %108 = load i32, i32* %2, align 4
  %109 = sext i32 %108 to i64
  %110 = getelementptr inbounds [100 x double], [100 x double]* %8, i64 0, i64 %109
  %111 = load double, double* %110, align 8
  %112 = fsub double %107, %111
  %113 = fmul double %100, %112
  %114 = load i32, i32* %2, align 4
  %115 = sext i32 %114 to i64
  %116 = getelementptr inbounds [100 x double], [100 x double]* %9, i64 0, i64 %115
  %117 = load double, double* %116, align 8
  %118 = fadd double %117, %113
  store double %118, double* %116, align 8
  br label %119

119:                                              ; preds = %88
  %120 = load i32, i32* %3, align 4
  %121 = add nsw i32 %120, 1
  store i32 %121, i32* %3, align 4
  br label %81

122:                                              ; preds = %81
  %123 = load i32, i32* %2, align 4
  %124 = sext i32 %123 to i64
  %125 = getelementptr inbounds [100 x double], [100 x double]* %9, i64 0, i64 %124
  %126 = load double, double* %125, align 8
  %127 = load i32, i32* %2, align 4
  %128 = sext i32 %127 to i64
  %129 = getelementptr inbounds [100 x i32], [100 x i32]* %5, i64 0, i64 %128
  %130 = load i32, i32* %129, align 4
  %131 = sitofp i32 %130 to double
  %132 = fdiv double %126, %131
  %133 = load i32, i32* %2, align 4
  %134 = sext i32 %133 to i64
  %135 = getelementptr inbounds [100 x double], [100 x double]* %10, i64 0, i64 %134
  store double %132, double* %135, align 8
  %136 = load i32, i32* %2, align 4
  %137 = sext i32 %136 to i64
  %138 = getelementptr inbounds [100 x double], [100 x double]* %10, i64 0, i64 %137
  %139 = load double, double* %138, align 8
  %140 = call double @sqrt(double %139) #3
  %141 = load i32, i32* %2, align 4
  %142 = sext i32 %141 to i64
  %143 = getelementptr inbounds [100 x double], [100 x double]* %11, i64 0, i64 %142
  store double %140, double* %143, align 8
  br label %144

144:                                              ; preds = %122
  %145 = load i32, i32* %2, align 4
  %146 = add nsw i32 %145, 1
  store i32 %146, i32* %2, align 4
  br label %73

147:                                              ; preds = %73
  store i32 0, i32* %2, align 4
  br label %148

148:                                              ; preds = %158, %147
  %149 = load i32, i32* %2, align 4
  %150 = load i32, i32* %4, align 4
  %151 = icmp slt i32 %149, %150
  br i1 %151, label %152, label %161

152:                                              ; preds = %148
  %153 = load i32, i32* %2, align 4
  %154 = sext i32 %153 to i64
  %155 = getelementptr inbounds [100 x double], [100 x double]* %11, i64 0, i64 %154
  %156 = load double, double* %155, align 8
  %157 = call i32 (i8*, ...) @printf(i8* getelementptr inbounds ([7 x i8], [7 x i8]* @.str.2, i64 0, i64 0), double %156)
  br label %158

158:                                              ; preds = %152
  %159 = load i32, i32* %2, align 4
  %160 = add nsw i32 %159, 1
  store i32 %160, i32* %2, align 4
  br label %148

161:                                              ; preds = %148
  ret i32 0
}

declare dso_local i32 @__isoc99_scanf(i8*, ...) #1

; Function Attrs: nounwind
declare dso_local double @sqrt(double) #2

declare dso_local i32 @printf(i8*, ...) #1


!llvm.module.flags = !{!0}
!llvm.ident = !{!1}

!0 = !{i32 1, !"wchar_size", i32 4}
!1 = !{!"clang version 10.0.0-4ubuntu1 "}
